; Function Attrs: nounwind uwtable
define dso_local range(i32 -1, 1) i32 @slurm_associations_get_shares(ptr noundef %0, ptr noundef writeonly captures(none) %1) local_unnamed_addr #1 {
  %3 = alloca %struct.slurm_msg, align 8
  %4 = alloca %struct.slurm_msg, align 8
  call void @llvm.lifetime.start.p0(i64 424, ptr nonnull %3) #19
  call void @llvm.lifetime.start.p0(i64 424, ptr nonnull %4) #19
  call void @slurm_msg_t_init(ptr noundef nonnull %3) #19
  call void @slurm_msg_t_init(ptr noundef nonnull %4) #19
  %5 = getelementptr inbounds nuw i8, ptr %3, i64 212
  store i16 2022, ptr %5, align 4
  %6 = getelementptr inbounds nuw i8, ptr %3, i64 200
  store ptr %0, ptr %6, align 8
  %7 = load ptr, ptr @working_cluster_rec, align 8
  %8 = call i32 @slurm_send_recv_controller_msg(ptr noundef nonnull %3, ptr noundef nonnull %4, ptr noundef %7)
  %9 = icmp slt i32 %8, 0
  br i1 %9, label %25, label %10

10:                                               ; preds = %2
  %11 = getelementptr inbounds nuw i8, ptr %4, i64 212
  %12 = load i16, ptr %11, align 4
  switch i16 %12, label %22 [
    i16 2023, label %13
    i16 8001, label %16
  ]

13:                                               ; preds = %10
  %14 = getelementptr inbounds nuw i8, ptr %4, i64 200
  %15 = load ptr, ptr %14, align 8
  br label %24

16:                                               ; preds = %10
  %17 = getelementptr inbounds nuw i8, ptr %4, i64 200
  %18 = load ptr, ptr %17, align 8
  %19 = load i32, ptr %18, align 4
  call void @slurm_free_return_code_msg(ptr noundef nonnull %18) #19
  %.not = icmp eq i32 %19, 0
  br i1 %.not, label %24, label %20

20:                                               ; preds = %16
  %21 = tail call ptr @__errno_location() #21
  store i32 %19, ptr %21, align 4
  br label %25

22:                                               ; preds = %10
  %23 = tail call ptr @__errno_location() #21
  store i32 1000, ptr %23, align 4
  br label %25

24:                                               ; preds = %16, %13
  %storemerge = phi ptr [ %15, %13 ], [ null, %16 ]
  store ptr %storemerge, ptr %1, align 8
  br label %25

25:                                               ; preds = %2, %24, %22, %20
  %.0 = phi i32 [ -1, %22 ], [ -1, %20 ], [ 0, %24 ], [ -1, %2 ]
  call void @llvm.lifetime.end.p0(i64 424, ptr nonnull %4) #19
  call void @llvm.lifetime.end.p0(i64 424, ptr nonnull %3) #19
  ret i32 %.0
}